target datalayout = "e-m:e-p270:32:32-p271:32:32-p272:64:64-i64:64-i128:128-f80:128-n8:16:32:64-S128"
target triple = "x86_64-pc-linux-gnu"

%struct.strvec = type { ptr, i64, i64 }
%struct.strbuf = type { i64, i64, ptr }
%struct.recent_data = type { ptr, i64, ptr, i32, %struct.oidset, i32 }
%struct.oidset = type { %struct.kh_oid_set }
%struct.kh_oid_set = type { i32, i32, i32, i32, ptr, ptr, ptr }
%struct.rev_info = type { ptr, %struct.object_array, ptr, %struct.object_array, %struct.rev_cmdline_info, %struct.list_objects_filter_options, %struct.ref_exclusions, ptr, ptr, ptr, %struct.pathspec, i32, i32, i32, i32, i64, i32, i32, %struct.date_mode, i32, i32, i32, i32, ptr, i32, i32, ptr, ptr, i32, ptr, ptr, %struct.ident_split, ptr, i32, ptr, ptr, ptr, i32, i32, i32, ptr, %struct.grep_opt, ptr, i32, i32, i64, i64, i64, i32, i32, ptr, ptr, ptr, %struct.diff_options, %struct.diff_options, ptr, %struct.decoration, %struct.decoration, %struct.decoration, %struct.display_notes_opt, ptr, ptr, ptr, ptr, ptr, i32, ptr, i32, i32, i32, %struct.decoration, ptr, ptr, ptr, ptr, ptr, ptr, ptr, i32, ptr, i32, ptr, %struct.oidset }
%struct.object_array = type { i32, i32, ptr }
%struct.rev_cmdline_info = type { i32, i32, ptr }
%struct.list_objects_filter_options = type { %struct.strbuf, i32, i8, ptr, i64, i64, i32, i64, i64, ptr }
%struct.ref_exclusions = type { %struct.string_list, %struct.strvec, i8 }
%struct.string_list = type { ptr, i64, i64, i8, ptr }
%struct.pathspec = type { i32, i8, i32, i32, ptr }
%struct.date_mode = type { i32, i32, ptr }
%struct.ident_split = type { ptr, ptr, ptr, ptr, ptr, ptr, ptr, ptr }
%struct.grep_opt = type { ptr, ptr, ptr, ptr, ptr, ptr, i32, i32, i32, i32, i32, i32, i32, i32, i32, i32, i32, i32, i32, i32, i32, i32, i32, i32, i32, i32, i32, i32, i32, i32, i32, i32, [9 x [75 x i8]], i32, i32, i32, i32, i32, i32, i32, ptr, ptr, ptr }
%struct.diff_options = type { ptr, ptr, i32, i32, ptr, i32, ptr, i64, i64, ptr, ptr, ptr, ptr, %struct.diff_flags, i32, i32, i32, i32, i32, i32, i32, i32, i32, i32, i32, i32, i32, i32, i32, i32, i32, i32, i32, i32, i32, i32, ptr, i32, ptr, i32, i32, ptr, i64, i64, i32, i32, i32, i32, ptr, i32, i32, ptr, i32, i32, ptr, ptr, i32, [3 x i8], %struct.pathspec, ptr, ptr, ptr, ptr, ptr, ptr, ptr, ptr, i32, ptr, i32, i32, ptr, ptr, i32 }
%struct.diff_flags = type { i32, i32, i32, i32, i32, i32, i32, i32, i32, i32, i32, i32, i32, i32, i32, i32, i32, i32, i32, i32, i32, i32, i32, i32, i32, i32, i32, i32, i32, i32, i32, i32, i32, i32, i32 }
%struct.display_notes_opt = type { i32, %struct.string_list }
%struct.decoration = type { ptr, i32, i32, ptr }
%struct.packed_git = type { %struct.hashmap_entry, ptr, %struct.list_head, ptr, i64, ptr, i64, i32, i64, %struct.oidset, i32, i64, i32, i32, i8, [32 x i8], ptr, ptr, ptr, i64, ptr, i64, ptr, [0 x i8] }
%struct.hashmap_entry = type { ptr, i32 }
%struct.list_head = type { ptr, ptr }

@the_repository = external global ptr, align 8
@.str.11 = private unnamed_addr constant [34 x i8] c"could not load cruft pack .mtimes\00", align 1

; Function Attrs: nounwind uwtable
define internal i32 @want_recent_object(ptr noundef %0, ptr noundef %1) #0 {
  %3 = alloca i32, align 4
  %4 = alloca ptr, align 8
  %5 = alloca ptr, align 8
  store ptr %0, ptr %4, align 8, !tbaa !97
  store ptr %1, ptr %5, align 8, !tbaa !69
  %6 = load ptr, ptr %4, align 8, !tbaa !97
  %7 = getelementptr inbounds nuw %struct.recent_data, ptr %6, i32 0, i32 3
  %8 = load i32, ptr %7, align 8, !tbaa !22
  %9 = icmp ne i32 %8, 0
  br i1 %9, label %10, label %20

10:                                               ; preds = %2
  %11 = load ptr, ptr %4, align 8, !tbaa !97
  %12 = getelementptr inbounds nuw %struct.recent_data, ptr %11, i32 0, i32 0
  %13 = load ptr, ptr %12, align 8, !tbaa !14
  %14 = getelementptr inbounds nuw %struct.rev_info, ptr %13, i32 0, i32 2
  %15 = load ptr, ptr %14, align 8, !tbaa !24
  %16 = load ptr, ptr %5, align 8, !tbaa !69
  %17 = call i32 @has_object_kept_pack(ptr noundef %15, ptr noundef %16, i32 noundef 2)
  %18 = icmp ne i32 %17, 0
  br i1 %18, label %19, label %20

19:                                               ; preds = %10
  store i32 0, ptr %3, align 4
  br label %21

20:                                               ; preds = %10, %2
  store i32 1, ptr %3, align 4
  br label %21

21:                                               ; preds = %20, %19
  %22 = load i32, ptr %3, align 4
  ret i32 %22
}

; Function Attrs: nounwind uwtable
define internal i32 @add_recent_packed(ptr noundef %0, ptr noundef %1, i32 noundef %2, ptr noundef %3) #0 {
  %5 = alloca i32, align 4
  %6 = alloca ptr, align 8
  %7 = alloca ptr, align 8
  %8 = alloca i32, align 4
  %9 = alloca ptr, align 8
  %10 = alloca ptr, align 8
  %11 = alloca i64, align 8
  %12 = alloca i32, align 4
  store ptr %0, ptr %6, align 8, !tbaa !69
  store ptr %1, ptr %7, align 8, !tbaa !77
  store i32 %2, ptr %8, align 4, !tbaa !12
  store ptr %3, ptr %9, align 8, !tbaa !11
  call void @llvm.lifetime.start.p0(i64 8, ptr %10) #9
  call void @llvm.lifetime.start.p0(i64 8, ptr %11) #9
  %13 = load ptr, ptr %7, align 8, !tbaa !77
  %14 = getelementptr inbounds nuw %struct.packed_git, ptr %13, i32 0, i32 11
  %15 = load i64, ptr %14, align 8, !tbaa !9
  store i64 %15, ptr %11, align 8, !tbaa !9
  %16 = load ptr, ptr %9, align 8, !tbaa !11
  %17 = load ptr, ptr %6, align 8, !tbaa !69
  %18 = call i32 @want_recent_object(ptr noundef %16, ptr noundef %17)
  %19 = icmp ne i32 %18, 0
  br i1 %19, label %21, label %20

20:                                               ; preds = %4
  store i32 0, ptr %5, align 4
  store i32 1, ptr %12, align 4
  br label %60

21:                                               ; preds = %4
  %22 = load ptr, ptr @the_repository, align 8, !tbaa !71
  %23 = load ptr, ptr %6, align 8, !tbaa !69
  %24 = call ptr @lookup_object(ptr noundef %22, ptr noundef %23)
  store ptr %24, ptr %10, align 8, !tbaa !72
  %25 = load ptr, ptr %10, align 8, !tbaa !72
  %26 = icmp ne ptr %25, null
  br i1 %26, label %27, label %34

27:                                               ; preds = %21
  %28 = load ptr, ptr %10, align 8, !tbaa !72
  %29 = load i32, ptr %28, align 4
  %30 = lshr i32 %29, 4
  %31 = and i32 %30, 1
  %32 = icmp ne i32 %31, 0
  br i1 %32, label %33, label %34

33:                                               ; preds = %27
  store i32 0, ptr %5, align 4
  store i32 1, ptr %12, align 4
  br label %60

34:                                               ; preds = %27, %21
  %35 = load ptr, ptr %7, align 8, !tbaa !77
  %36 = getelementptr inbounds nuw %struct.packed_git, ptr %35, i32 0, i32 14
  %37 = load i8, ptr %36, align 8
  %38 = lshr i8 %37, 7
  %39 = zext i8 %38 to i32
  %40 = icmp ne i32 %39, 0
  br i1 %40, label %41, label %52

41:                                               ; preds = %34
  %42 = load ptr, ptr %7, align 8, !tbaa !77
  %43 = call i32 @load_pack_mtimes(ptr noundef %42)
  %44 = icmp slt i32 %43, 0
  br i1 %44, label %45, label %47

45:                                               ; preds = %41
  %46 = call ptr @_(ptr noundef @.str.11)
  call void (ptr, ...) @die(ptr noundef %46) #11
  unreachable

47:                                               ; preds = %41
  %48 = load ptr, ptr %7, align 8, !tbaa !77
  %49 = load i32, ptr %8, align 4, !tbaa !12
  %50 = call i32 @nth_packed_mtime(ptr noundef %48, i32 noundef %49)
  %51 = zext i32 %50 to i64
  store i64 %51, ptr %11, align 8, !tbaa !9
  br label %52

52:                                               ; preds = %47, %34
  %53 = load ptr, ptr %6, align 8, !tbaa !69
  %54 = load ptr, ptr %7, align 8, !tbaa !77
  %55 = load ptr, ptr %7, align 8, !tbaa !77
  %56 = load i32, ptr %8, align 4, !tbaa !12
  %57 = call i64 @nth_packed_object_offset(ptr noundef %55, i32 noundef %56)
  %58 = load i64, ptr %11, align 8, !tbaa !9
  %59 = load ptr, ptr %9, align 8, !tbaa !11
  call void @add_recent_object(ptr noundef %53, ptr noundef %54, i64 noundef %57, i64 noundef %58, ptr noundef %59)
  store i32 0, ptr %5, align 4
  store i32 1, ptr %12, align 4
  br label %60

60:                                               ; preds = %52, %33, %20
  call void @llvm.lifetime.end.p0(i64 8, ptr %11) #9
  call void @llvm.lifetime.end.p0(i64 8, ptr %10) #9
  %61 = load i32, ptr %5, align 4
  ret i32 %61
}