; Function Attrs: nounwind uwtable
define internal noundef i32 @add_recent_packed(ptr noundef %0, ptr noundef %1, i32 noundef %2, ptr noundef %3) #0 {
  %5 = getelementptr inbounds nuw i8, ptr %1, i64 136
  %6 = load i64, ptr %5, align 8, !tbaa !70
  %7 = getelementptr inbounds nuw i8, ptr %3, i64 24
  %8 = load i32, ptr %7, align 8, !tbaa !18
  %.not.i = icmp eq i32 %8, 0
  br i1 %.not.i, label %want_recent_object.exit, label %9

9:                                                ; preds = %4
  %10 = load ptr, ptr %3, align 8, !tbaa !4
  %11 = getelementptr inbounds nuw i8, ptr %10, i64 24
  %12 = load ptr, ptr %11, align 8, !tbaa !20
  %13 = tail call i32 @has_object_kept_pack(ptr noundef %12, ptr noundef %0, i32 noundef 2) #11
  %.not3.i = icmp eq i32 %13, 0
  br i1 %.not3.i, label %want_recent_object.exit, label %want_recent_object.exit.thread

want_recent_object.exit:                          ; preds = %9, %4
  %14 = load ptr, ptr @the_repository, align 8, !tbaa !65
  %15 = tail call ptr @lookup_object(ptr noundef %14, ptr noundef %0) #11
  %.not18 = icmp eq ptr %15, null
  br i1 %.not18, label %19, label %16

16:                                               ; preds = %want_recent_object.exit
  %17 = load i32, ptr %15, align 4
  %18 = and i32 %17, 16
  %.not19 = icmp eq i32 %18, 0
  br i1 %.not19, label %19, label %want_recent_object.exit.thread

19:                                               ; preds = %16, %want_recent_object.exit
  %20 = getelementptr inbounds nuw i8, ptr %1, i64 152
  %21 = load i8, ptr %20, align 8
  %.not20 = icmp sgt i8 %21, -1
  br i1 %.not20, label %30, label %22

22:                                               ; preds = %19
  %23 = tail call i32 @load_pack_mtimes(ptr noundef nonnull %1) #11
  %24 = icmp slt i32 %23, 0
  br i1 %24, label %25, label %27

25:                                               ; preds = %22
  %26 = tail call fastcc ptr @_(ptr noundef nonnull @.str.11)
  tail call void (ptr, ...) @die(ptr noundef %26) #13
  unreachable

27:                                               ; preds = %22
  %28 = tail call i32 @nth_packed_mtime(ptr noundef nonnull %1, i32 noundef %2) #11
  %29 = zext i32 %28 to i64
  br label %30

30:                                               ; preds = %27, %19
  %.0 = phi i64 [ %29, %27 ], [ %6, %19 ]
  %31 = tail call i64 @nth_packed_object_offset(ptr noundef nonnull %1, i32 noundef %2) #11
  tail call fastcc void @add_recent_object(ptr noundef %0, ptr noundef nonnull %1, i64 noundef %31, i64 noundef %.0, ptr noundef nonnull %3)
  br label %want_recent_object.exit.thread

want_recent_object.exit.thread:                   ; preds = %9, %16, %30
  ret i32 0
}